((dp0
I1
I0
sI2
I1
sI3
I2
sI4
I3
sI5
I4
sI6
I5
sI7
I6
sI8
I7
sI9
I8
s(dp1
I1
I9
sI2
I10
sI3
I11
sI4
I12
sI5
I13
sI6
I14
sI7
I15
sI8
I16
s(dp2
I0
I17
sI1
I18
sI2
I19
sI3
I20
sI4
I21
sI5
I22
sI6
I23
sI7
I24
sI8
I25
sI9
I26
sccopy_reg
_reconstructor
p3
(cnetworkx.classes.graph
Graph
p4
c__builtin__
object
p5
Ntp6
Rp7
(dp8
S'adjlist_inner_dict_factory'
p9
c__builtin__
dict
p10
sS'node_dict_factory'
p11
g10
sS'edge_attr_dict_factory'
p12
g10
sS'_node'
p13
(dp14
I0
(dp15
S'type'
p16
S'C'
p17
sS'name'
p18
S'vICTSS'
p19
ssI1
(dp20
g16
g17
sg18
S'vIJIMAI'
p21
ssI2
(dp22
g16
g17
sg18
S'vComputationalIntelligence'
p23
ssI3
(dp24
g16
g17
sg18
S'vIJTHI'
p25
ssI4
(dp26
g16
g17
sg18
S'vComputerMethodsandProgramsinBiomedicine'
p27
ssI5
(dp28
g16
g17
sg18
S'vComp.inBio.andMed.'
p29
ssI6
(dp30
g16
g17
sg18
S'vDSV-IS'
p31
ssI7
(dp32
g16
g17
sg18
S'vArchiveofFormalProofs'
p33
ssI8
(dp34
g16
g17
sg18
S'vOOPSLA'
p35
ssI9
(dp36
g16
S'A'
p37
sg18
S'aStevenReece'
p38
ssI10
(dp39
g16
g37
sg18
S'aHsien-senHung'
p40
ssI11
(dp41
g16
g37
sg18
S'aCecilia&Aring;slund'
p42
ssI12
(dp43
g16
g37
sg18
S'aDivyanshuVats'
p44
ssI13
(dp45
g16
g37
sg18
S'aAmalnKundu'
p46
ssI14
(dp47
g16
g37
sg18
S'aSanjitKumarMitra'
p48
ssI15
(dp49
g16
g37
sg18
S'aAnnikaBergstr&ouml;m'
p50
ssI16
(dp51
g16
g37
sg18
S'aShojiShimada'
p52
ssI17
(dp53
g16
S'P'
p54
sg18
S'Parallel Integer Sorting and Simulation Amongst CRCW Models.'
p55
ssI18
(dp56
g16
g54
sg18
S'Pattern Matching in Trees and Nets.'
p57
ssI19
(dp58
g16
g54
sg18
S'NP-complete Problems Simplified on Tree Schemas.'
p59
ssI20
(dp60
g16
g54
sg18
S'On the Power of Chain Rules in Context Free Grammars.'
p61
ssI21
(dp62
g16
g54
sg18
S'Schnelle Multiplikation von Polynomen &uuml;ber K&ouml;rpern der Charakteristik 2.'
p63
ssI22
(dp64
g16
g54
sg18
S'A characterization of rational D0L power series.'
p65
ssI23
(dp66
g16
g54
sg18
S'The Derivation of Systolic Implementations of Programs.'
p67
ssI24
(dp68
g16
g54
sg18
S'Fifo Nets Without Order Deadlock.'
p69
ssI25
(dp70
g16
g54
sg18
S'On the Complementation Rule for Multivalued Dependencies in Database Relations.'
p71
ssI26
(dp72
g16
g54
sg18
S'Equational weighted tree transformations.'
p73
sssS'graph'
p74
(dp75
sS'root_graph'
p76
g7
sS'_adj'
p77
(dp78
I0
(dp79
I18
(dp80
S'weight'
p81
I1
sssI1
(dp82
I19
(dp83
g81
I1
sssI2
(dp84
I20
(dp85
g81
I1
sssI3
(dp86
I21
(dp87
g81
I1
sssI4
(dp88
I22
(dp89
g81
I1
sssI5
(dp90
sI6
(dp91
sI7
(dp92
sI8
(dp93
sI9
(dp94
I18
(dp95
g81
I1
sssI10
(dp96
I19
(dp97
g81
I1
sssI11
(dp98
I20
(dp99
g81
I1
sssI12
(dp100
I21
(dp101
g81
I1
sssI13
(dp102
I22
(dp103
g81
I1
sssI14
(dp104
sI15
(dp105
sI16
(dp106
sI17
(dp107
sI18
(dp108
I0
g80
sI9
g95
ssI19
(dp109
I1
g83
sI10
g97
ssI20
(dp110
I2
g85
sI11
g99
ssI21
(dp111
I3
g87
sI12
g101
ssI22
(dp112
I4
g89
sI13
g103
ssI23
(dp113
sI24
(dp114
sI25
(dp115
sI26
(dp116
ssS'adjlist_outer_dict_factory'
p117
g10
sbtp118
.