((dp0
I1
I0
sI2
I1
sI3
I2
sI4
I3
sI5
I4
sI6
I5
sI7
I6
sI8
I7
sI9
I8
s(dp1
I1
I9
sI2
I10
sI3
I11
sI4
I12
sI5
I13
sI6
I14
sI7
I15
sI8
I16
s(dp2
I0
I17
sI1
I18
sI2
I19
sI3
I20
sI4
I21
sI5
I22
sI6
I23
sI7
I24
sI8
I25
sI9
I26
sccopy_reg
_reconstructor
p3
(cnetworkx.classes.graph
Graph
p4
c__builtin__
object
p5
Ntp6
Rp7
(dp8
S'node'
p9
(dp10
I0
(dp11
S'type'
p12
S'C'
p13
sS'name'
p14
S'vICTSS'
p15
ssI1
(dp16
g12
g13
sg14
S'vIJIMAI'
p17
ssI2
(dp18
g12
g13
sg14
S'vComputationalIntelligence'
p19
ssI3
(dp20
g12
g13
sg14
S'vIJTHI'
p21
ssI4
(dp22
g12
g13
sg14
S'vComputerMethodsandProgramsinBiomedicine'
p23
ssI5
(dp24
g12
g13
sg14
S'vComp.inBio.andMed.'
p25
ssI6
(dp26
g12
g13
sg14
S'vDSV-IS'
p27
ssI7
(dp28
g12
g13
sg14
S'vArchiveofFormalProofs'
p29
ssI8
(dp30
g12
g13
sg14
S'vOOPSLA'
p31
ssI9
(dp32
g12
S'A'
p33
sg14
S'aStevenReece'
p34
ssI10
(dp35
g12
g33
sg14
S'aHsien-senHung'
p36
ssI11
(dp37
g12
g33
sg14
S'aCecilia&Aring;slund'
p38
ssI12
(dp39
g12
g33
sg14
S'aDivyanshuVats'
p40
ssI13
(dp41
g12
g33
sg14
S'aAmalnKundu'
p42
ssI14
(dp43
g12
g33
sg14
S'aSanjitKumarMitra'
p44
ssI15
(dp45
g12
g33
sg14
S'aAnnikaBergstr&ouml;m'
p46
ssI16
(dp47
g12
g33
sg14
S'aShojiShimada'
p48
ssI17
(dp49
g12
S'P'
p50
sg14
S'Parallel Integer Sorting and Simulation Amongst CRCW Models.'
p51
ssI18
(dp52
g12
g50
sg14
S'Pattern Matching in Trees and Nets.'
p53
ssI19
(dp54
g12
g50
sg14
S'NP-complete Problems Simplified on Tree Schemas.'
p55
ssI20
(dp56
g12
g50
sg14
S'On the Power of Chain Rules in Context Free Grammars.'
p57
ssI21
(dp58
g12
g50
sg14
S'Schnelle Multiplikation von Polynomen &uuml;ber K&ouml;rpern der Charakteristik 2.'
p59
ssI22
(dp60
g12
g50
sg14
S'A characterization of rational D0L power series.'
p61
ssI23
(dp62
g12
g50
sg14
S'The Derivation of Systolic Implementations of Programs.'
p63
ssI24
(dp64
g12
g50
sg14
S'Fifo Nets Without Order Deadlock.'
p65
ssI25
(dp66
g12
g50
sg14
S'On the Complementation Rule for Multivalued Dependencies in Database Relations.'
p67
ssI26
(dp68
g12
g50
sg14
S'Equational weighted tree transformations.'
p69
sssS'node_dict_factory'
p70
c__builtin__
dict
p71
sS'edge_attr_dict_factory'
p72
g71
sS'edge'
p73
(dp74
I0
(dp75
I18
(dp76
S'weight'
p77
I1
sssI1
(dp78
I19
(dp79
g77
I1
sssI2
(dp80
I20
(dp81
g77
I1
sssI3
(dp82
I21
(dp83
g77
I1
sssI4
(dp84
I22
(dp85
g77
I1
sssI5
(dp86
sI6
(dp87
sI7
(dp88
sI8
(dp89
sI9
(dp90
I18
(dp91
g77
I1
sssI10
(dp92
I19
(dp93
g77
I1
sssI11
(dp94
I20
(dp95
g77
I1
sssI12
(dp96
I21
(dp97
g77
I1
sssI13
(dp98
I22
(dp99
g77
I1
sssI14
(dp100
sI15
(dp101
sI16
(dp102
sI17
(dp103
sI18
(dp104
I0
g76
sI9
g91
ssI19
(dp105
I1
g79
sI10
g93
ssI20
(dp106
I2
g81
sI11
g95
ssI21
(dp107
I3
g83
sI12
g97
ssI22
(dp108
I4
g85
sI13
g99
ssI23
(dp109
sI24
(dp110
sI25
(dp111
sI26
(dp112
ssS'graph'
p113
(dp114
sS'adjlist_dict_factory'
p115
g71
sS'adj'
p116
g74
sbtp117
.